; Function Attrs: mustprogress nofree norecurse nosync nounwind willreturn memory(write, argmem: readwrite, inaccessiblemem: none) uwtable
define internal void @indev_scroll_throw_anim_completed_cb(ptr noundef readonly captures(address_is_null) %0) #9 {
  %.not = icmp eq ptr %0, null
  br i1 %.not, label %indev_scroll_throw_anim_reset.exit, label %2

2:                                                ; preds = %1
  %3 = load ptr, ptr %0, align 8, !tbaa !146
  %.not.i = icmp eq ptr %3, null
  br i1 %.not.i, label %indev_scroll_throw_anim_reset.exit, label %4

4:                                                ; preds = %2
  %5 = getelementptr inbounds nuw i8, ptr %3, i64 128
  store i32 0, ptr %5, align 8, !tbaa !62
  %6 = getelementptr inbounds nuw i8, ptr %3, i64 132
  store i32 0, ptr %6, align 4, !tbaa !63
  %7 = getelementptr inbounds nuw i8, ptr %3, i64 296
  store ptr null, ptr %7, align 8, !tbaa !140
  br label %indev_scroll_throw_anim_reset.exit

indev_scroll_throw_anim_reset.exit:               ; preds = %4, %2, %1
  ret void
}